target datalayout = "e-m:e-p270:32:32-p271:32:32-p272:64:64-i64:64-i128:128-f80:128-n8:16:32:64-S128"
target triple = "x86_64-pc-linux-gnu"

%struct.PaUtilHostApiRepresentation = type { %struct.PaUtilPrivatePaFrontHostApiInfo, %struct.PaHostApiInfo, ptr, ptr, ptr, ptr }
%struct.PaUtilPrivatePaFrontHostApiInfo = type { i64 }
%struct.PaHostApiInfo = type { i32, i32, ptr, i32, i32, i32 }

@initializationCount_ = internal global i32 0, align 4
@initializing_ = internal global i32 0, align 4
@hostApisCount_ = internal global i32 0, align 4
@hostApis_ = internal global ptr null, align 8
@defaultHostApiIndex_ = internal global i32 0, align 4
@deviceCount_ = internal global i32 0, align 4
@paHostApiInitializers = external global [0 x ptr], align 8

; Function Attrs: nounwind uwtable
define internal void @TerminateHostApis() #0 {
  br label %1

1:                                                ; preds = %4, %0
  %2 = load i32, ptr @hostApisCount_, align 4
  %3 = icmp sgt i32 %2, 0
  br i1 %3, label %4, label %19

4:                                                ; preds = %1
  %5 = load i32, ptr @hostApisCount_, align 4
  %6 = add nsw i32 %5, -1
  store i32 %6, ptr @hostApisCount_, align 4
  %7 = load ptr, ptr @hostApis_, align 8
  %8 = load i32, ptr @hostApisCount_, align 4
  %9 = sext i32 %8 to i64
  %10 = getelementptr inbounds ptr, ptr %7, i64 %9
  %11 = load ptr, ptr %10, align 8
  %12 = getelementptr inbounds nuw %struct.PaUtilHostApiRepresentation, ptr %11, i32 0, i32 3
  %13 = load ptr, ptr %12, align 8
  %14 = load ptr, ptr @hostApis_, align 8
  %15 = load i32, ptr @hostApisCount_, align 4
  %16 = sext i32 %15 to i64
  %17 = getelementptr inbounds ptr, ptr %14, i64 %16
  %18 = load ptr, ptr %17, align 8
  call void %13(ptr noundef %18)
  br label %1, !llvm.loop !7

19:                                               ; preds = %1
  store i32 0, ptr @hostApisCount_, align 4
  store i32 0, ptr @defaultHostApiIndex_, align 4
  store i32 0, ptr @deviceCount_, align 4
  %20 = load ptr, ptr @hostApis_, align 8
  %21 = icmp ne ptr %20, null
  br i1 %21, label %22, label %24

22:                                               ; preds = %19
  %23 = load ptr, ptr @hostApis_, align 8
  call void @PaUtil_FreeMemory(ptr noundef %23)
  br label %24

24:                                               ; preds = %22, %19
  store ptr null, ptr @hostApis_, align 8
  ret void
}

; Function Attrs: nounwind uwtable
define internal i32 @CountHostApiInitializers() #0 {
  %1 = alloca i32, align 4
  store i32 0, ptr %1, align 4
  br label %2

2:                                                ; preds = %8, %0
  %3 = load i32, ptr %1, align 4
  %4 = sext i32 %3 to i64
  %5 = getelementptr inbounds [0 x ptr], ptr @paHostApiInitializers, i64 0, i64 %4
  %6 = load ptr, ptr %5, align 8
  %7 = icmp ne ptr %6, null
  br i1 %7, label %8, label %11

8:                                                ; preds = %2
  %9 = load i32, ptr %1, align 4
  %10 = add nsw i32 %9, 1
  store i32 %10, ptr %1, align 4
  br label %2, !llvm.loop !12

11:                                               ; preds = %2
  %12 = load i32, ptr %1, align 4
  ret i32 %12
}

; Function Attrs: nounwind uwtable
define internal i32 @InitializeHostApis() #0 {
  %1 = alloca i32, align 4
  %2 = alloca i32, align 4
  %3 = alloca i32, align 4
  %4 = alloca i32, align 4
  %5 = alloca i32, align 4
  %6 = alloca ptr, align 8
  store i32 0, ptr %2, align 4
  %7 = call i32 @CountHostApiInitializers()
  store i32 %7, ptr %4, align 4
  %8 = load i32, ptr %4, align 4
  %9 = sext i32 %8 to i64
  %10 = mul i64 8, %9
  %11 = call ptr @PaUtil_AllocateZeroInitializedMemory(i64 noundef %10)
  store ptr %11, ptr @hostApis_, align 8
  %12 = load ptr, ptr @hostApis_, align 8
  %13 = icmp ne ptr %12, null
  br i1 %13, label %15, label %14

14:                                               ; preds = %0
  store i32 -9992, ptr %2, align 4
  br label %123

15:                                               ; preds = %0
  store i32 0, ptr @hostApisCount_, align 4
  store i32 -1, ptr @defaultHostApiIndex_, align 4
  store i32 0, ptr @deviceCount_, align 4
  store i32 0, ptr %5, align 4
  store i32 0, ptr %3, align 4
  br label %16

16:                                               ; preds = %114, %15
  %17 = load i32, ptr %3, align 4
  %18 = load i32, ptr %4, align 4
  %19 = icmp slt i32 %17, %18
  br i1 %19, label %20, label %117

20:                                               ; preds = %16
  %21 = load ptr, ptr @hostApis_, align 8
  %22 = load i32, ptr @hostApisCount_, align 4
  %23 = sext i32 %22 to i64
  %24 = getelementptr inbounds ptr, ptr %21, i64 %23
  store ptr null, ptr %24, align 8
  %25 = load i32, ptr %3, align 4
  %26 = sext i32 %25 to i64
  %27 = getelementptr inbounds [0 x ptr], ptr @paHostApiInitializers, i64 0, i64 %26
  %28 = load ptr, ptr %27, align 8
  %29 = load ptr, ptr @hostApis_, align 8
  %30 = load i32, ptr @hostApisCount_, align 4
  %31 = sext i32 %30 to i64
  %32 = getelementptr inbounds ptr, ptr %29, i64 %31
  %33 = load i32, ptr @hostApisCount_, align 4
  %34 = call i32 %28(ptr noundef %32, i32 noundef %33)
  store i32 %34, ptr %2, align 4
  %35 = load i32, ptr %2, align 4
  %36 = icmp ne i32 %35, 0
  br i1 %36, label %37, label %38

37:                                               ; preds = %20
  br label %123

38:                                               ; preds = %20
  %39 = load ptr, ptr @hostApis_, align 8
  %40 = load i32, ptr @hostApisCount_, align 4
  %41 = sext i32 %40 to i64
  %42 = getelementptr inbounds ptr, ptr %39, i64 %41
  %43 = load ptr, ptr %42, align 8
  %44 = icmp ne ptr %43, null
  br i1 %44, label %45, label %113

45:                                               ; preds = %38
  %46 = load ptr, ptr @hostApis_, align 8
  %47 = load i32, ptr @hostApisCount_, align 4
  %48 = sext i32 %47 to i64
  %49 = getelementptr inbounds ptr, ptr %46, i64 %48
  %50 = load ptr, ptr %49, align 8
  store ptr %50, ptr %6, align 8
  %51 = load i32, ptr @defaultHostApiIndex_, align 4
  %52 = icmp eq i32 %51, -1
  br i1 %52, label %53, label %67

53:                                               ; preds = %45
  %54 = load ptr, ptr %6, align 8
  %55 = getelementptr inbounds nuw %struct.PaUtilHostApiRepresentation, ptr %54, i32 0, i32 1
  %56 = getelementptr inbounds nuw %struct.PaHostApiInfo, ptr %55, i32 0, i32 4
  %57 = load i32, ptr %56, align 4
  %58 = icmp ne i32 %57, -1
  br i1 %58, label %65, label %59

59:                                               ; preds = %53
  %60 = load ptr, ptr %6, align 8
  %61 = getelementptr inbounds nuw %struct.PaUtilHostApiRepresentation, ptr %60, i32 0, i32 1
  %62 = getelementptr inbounds nuw %struct.PaHostApiInfo, ptr %61, i32 0, i32 5
  %63 = load i32, ptr %62, align 8
  %64 = icmp ne i32 %63, -1
  br i1 %64, label %65, label %67

65:                                               ; preds = %59, %53
  %66 = load i32, ptr @hostApisCount_, align 4
  store i32 %66, ptr @defaultHostApiIndex_, align 4
  br label %67

67:                                               ; preds = %65, %59, %45
  %68 = load i32, ptr %5, align 4
  %69 = sext i32 %68 to i64
  %70 = load ptr, ptr %6, align 8
  %71 = getelementptr inbounds nuw %struct.PaUtilHostApiRepresentation, ptr %70, i32 0, i32 0
  %72 = getelementptr inbounds nuw %struct.PaUtilPrivatePaFrontHostApiInfo, ptr %71, i32 0, i32 0
  store i64 %69, ptr %72, align 8
  %73 = load ptr, ptr %6, align 8
  %74 = getelementptr inbounds nuw %struct.PaUtilHostApiRepresentation, ptr %73, i32 0, i32 1
  %75 = getelementptr inbounds nuw %struct.PaHostApiInfo, ptr %74, i32 0, i32 4
  %76 = load i32, ptr %75, align 4
  %77 = icmp ne i32 %76, -1
  br i1 %77, label %78, label %85

78:                                               ; preds = %67
  %79 = load i32, ptr %5, align 4
  %80 = load ptr, ptr %6, align 8
  %81 = getelementptr inbounds nuw %struct.PaUtilHostApiRepresentation, ptr %80, i32 0, i32 1
  %82 = getelementptr inbounds nuw %struct.PaHostApiInfo, ptr %81, i32 0, i32 4
  %83 = load i32, ptr %82, align 4
  %84 = add nsw i32 %83, %79
  store i32 %84, ptr %82, align 4
  br label %85

85:                                               ; preds = %78, %67
  %86 = load ptr, ptr %6, align 8
  %87 = getelementptr inbounds nuw %struct.PaUtilHostApiRepresentation, ptr %86, i32 0, i32 1
  %88 = getelementptr inbounds nuw %struct.PaHostApiInfo, ptr %87, i32 0, i32 5
  %89 = load i32, ptr %88, align 8
  %90 = icmp ne i32 %89, -1
  br i1 %90, label %91, label %98

91:                                               ; preds = %85
  %92 = load i32, ptr %5, align 4
  %93 = load ptr, ptr %6, align 8
  %94 = getelementptr inbounds nuw %struct.PaUtilHostApiRepresentation, ptr %93, i32 0, i32 1
  %95 = getelementptr inbounds nuw %struct.PaHostApiInfo, ptr %94, i32 0, i32 5
  %96 = load i32, ptr %95, align 8
  %97 = add nsw i32 %96, %92
  store i32 %97, ptr %95, align 8
  br label %98

98:                                               ; preds = %91, %85
  %99 = load ptr, ptr %6, align 8
  %100 = getelementptr inbounds nuw %struct.PaUtilHostApiRepresentation, ptr %99, i32 0, i32 1
  %101 = getelementptr inbounds nuw %struct.PaHostApiInfo, ptr %100, i32 0, i32 3
  %102 = load i32, ptr %101, align 8
  %103 = load i32, ptr %5, align 4
  %104 = add nsw i32 %103, %102
  store i32 %104, ptr %5, align 4
  %105 = load ptr, ptr %6, align 8
  %106 = getelementptr inbounds nuw %struct.PaUtilHostApiRepresentation, ptr %105, i32 0, i32 1
  %107 = getelementptr inbounds nuw %struct.PaHostApiInfo, ptr %106, i32 0, i32 3
  %108 = load i32, ptr %107, align 8
  %109 = load i32, ptr @deviceCount_, align 4
  %110 = add nsw i32 %109, %108
  store i32 %110, ptr @deviceCount_, align 4
  %111 = load i32, ptr @hostApisCount_, align 4
  %112 = add nsw i32 %111, 1
  store i32 %112, ptr @hostApisCount_, align 4
  br label %113

113:                                              ; preds = %98, %38
  br label %114

114:                                              ; preds = %113
  %115 = load i32, ptr %3, align 4
  %116 = add nsw i32 %115, 1
  store i32 %116, ptr %3, align 4
  br label %16, !llvm.loop !4

117:                                              ; preds = %16
  %118 = load i32, ptr @defaultHostApiIndex_, align 4
  %119 = icmp eq i32 %118, -1
  br i1 %119, label %120, label %121

120:                                              ; preds = %117
  store i32 0, ptr @defaultHostApiIndex_, align 4
  br label %121

121:                                              ; preds = %120, %117
  %122 = load i32, ptr %2, align 4
  store i32 %122, ptr %1, align 4
  br label %125

123:                                              ; preds = %37, %14
  call void @TerminateHostApis()
  %124 = load i32, ptr %2, align 4
  store i32 %124, ptr %1, align 4
  br label %125

125:                                              ; preds = %123, %121
  %126 = load i32, ptr %1, align 4
  ret i32 %126
}

; Function Attrs: nounwind uwtable
define i32 @Pa_Initialize() #0 {
  %1 = alloca i32, align 4
  %2 = load i32, ptr @initializationCount_, align 4
  %3 = icmp ne i32 %2, 0
  br i1 %3, label %4, label %7

4:                                                ; preds = %0
  %5 = load i32, ptr @initializationCount_, align 4
  %6 = add nsw i32 %5, 1
  store i32 %6, ptr @initializationCount_, align 4
  store i32 0, ptr %1, align 4
  br label %20

7:                                                ; preds = %0
  %8 = load i32, ptr @initializing_, align 4
  %9 = icmp ne i32 %8, 0
  br i1 %9, label %10, label %11

10:                                               ; preds = %7
  store i32 -9971, ptr %1, align 4
  br label %19

11:                                               ; preds = %7
  store i32 1, ptr @initializing_, align 4
  call void @PaUtil_InitializeClock()
  %12 = call i32 @InitializeHostApis()
  store i32 %12, ptr %1, align 4
  %13 = load i32, ptr %1, align 4
  %14 = icmp eq i32 %13, 0
  br i1 %14, label %15, label %18

15:                                               ; preds = %11
  %16 = load i32, ptr @initializationCount_, align 4
  %17 = add nsw i32 %16, 1
  store i32 %17, ptr @initializationCount_, align 4
  br label %18

18:                                               ; preds = %15, %11
  store i32 0, ptr @initializing_, align 4
  br label %19

19:                                               ; preds = %18, %10
  br label %20

20:                                               ; preds = %19, %4
  %21 = load i32, ptr %1, align 4
  ret i32 %21
}