; Function Attrs: nounwind uwtable
define i32 @Pa_Initialize() local_unnamed_addr #3 {
  %1 = load i32, ptr @initializationCount_, align 4
  %.not = icmp eq i32 %1, 0
  br i1 %.not, label %4, label %2

2:                                                ; preds = %0
  %3 = add nsw i32 %1, 1
  store i32 %3, ptr @initializationCount_, align 4
  br label %71

4:                                                ; preds = %0
  %.b = load i1, ptr @initializing_, align 4
  br i1 %.b, label %71, label %5

5:                                                ; preds = %4
  store i1 true, ptr @initializing_, align 4
  tail call void @PaUtil_InitializeClock() #12
  br label %6

6:                                                ; preds = %6, %5
  %indvars.iv.i.i = phi i64 [ %indvars.iv.next.i.i, %6 ], [ 0, %5 ]
  %7 = getelementptr inbounds [0 x ptr], ptr @paHostApiInitializers, i64 0, i64 %indvars.iv.i.i
  %8 = load ptr, ptr %7, align 8
  %.not.i.i = icmp eq ptr %8, null
  %indvars.iv.next.i.i = add nuw i64 %indvars.iv.i.i, 1
  br i1 %.not.i.i, label %CountHostApiInitializers.exit.i, label %6, !llvm.loop !4

CountHostApiInitializers.exit.i:                  ; preds = %6
  %indvars8.le = trunc i64 %indvars.iv.i.i to i32
  %sext.i = shl i64 %indvars.iv.i.i, 32
  %9 = ashr exact i64 %sext.i, 29
  %10 = tail call ptr @PaUtil_AllocateZeroInitializedMemory(i64 noundef %9) #12
  store ptr %10, ptr @hostApis_, align 8
  %.not.i = icmp eq ptr %10, null
  br i1 %.not.i, label %.loopexit.i, label %11

11:                                               ; preds = %CountHostApiInitializers.exit.i
  store i32 0, ptr @hostApisCount_, align 4
  store i32 -1, ptr @defaultHostApiIndex_, align 4
  store i32 0, ptr @deviceCount_, align 4
  %.not39.i = icmp eq i64 %indvars.iv.i.i, 0
  br i1 %.not39.i, label %._crit_edge.thread.i, label %.lr.ph.preheader.i

.lr.ph.preheader.i:                               ; preds = %11
  %smax.i = tail call i32 @llvm.smax.i32(i32 %indvars8.le, i32 1)
  %wide.trip.count.i = zext nneg i32 %smax.i to i64
  br label %.lr.ph.i

.lr.ph.i:                                         ; preds = %51, %.lr.ph.preheader.i
  %12 = phi i32 [ 0, %.lr.ph.preheader.i ], [ %52, %51 ]
  %13 = phi ptr [ %10, %.lr.ph.preheader.i ], [ %20, %51 ]
  %indvars.iv.i = phi i64 [ 0, %.lr.ph.preheader.i ], [ %indvars.iv.next.i, %51 ]
  %.02138.i = phi i32 [ 0, %.lr.ph.preheader.i ], [ %.1.i, %51 ]
  %14 = sext i32 %12 to i64
  %15 = getelementptr inbounds ptr, ptr %13, i64 %14
  store ptr null, ptr %15, align 8
  %16 = getelementptr inbounds [0 x ptr], ptr @paHostApiInitializers, i64 0, i64 %indvars.iv.i
  %17 = load ptr, ptr %16, align 8
  %18 = tail call i32 %17(ptr noundef nonnull %15, i32 noundef %12) #12
  %.not30.i = icmp eq i32 %18, 0
  br i1 %.not30.i, label %19, label %.loopexit.i

19:                                               ; preds = %.lr.ph.i
  %20 = load ptr, ptr @hostApis_, align 8
  %21 = load i32, ptr @hostApisCount_, align 4
  %22 = sext i32 %21 to i64
  %23 = getelementptr inbounds ptr, ptr %20, i64 %22
  %24 = load ptr, ptr %23, align 8
  %.not31.i = icmp eq ptr %24, null
  br i1 %.not31.i, label %51, label %25

25:                                               ; preds = %19
  %26 = load i32, ptr @defaultHostApiIndex_, align 4
  %27 = icmp eq i32 %26, -1
  %28 = getelementptr inbounds i8, ptr %24, i64 28
  %29 = load i32, ptr %28, align 4
  br i1 %27, label %30, label %._crit_edge44.i

30:                                               ; preds = %25
  %.not32.i = icmp eq i32 %29, -1
  br i1 %.not32.i, label %31, label %35

31:                                               ; preds = %30
  %32 = getelementptr inbounds i8, ptr %24, i64 32
  %33 = load i32, ptr %32, align 8
  %.not33.i = icmp eq i32 %33, -1
  br i1 %.not33.i, label %.thread.i, label %35

.thread.i:                                        ; preds = %31
  %34 = sext i32 %.02138.i to i64
  store i64 %34, ptr %24, align 8
  br label %39

35:                                               ; preds = %31, %30
  store i32 %21, ptr @defaultHostApiIndex_, align 4
  br label %._crit_edge44.i

._crit_edge44.i:                                  ; preds = %35, %25
  %36 = sext i32 %.02138.i to i64
  store i64 %36, ptr %24, align 8
  %.not34.i = icmp eq i32 %29, -1
  br i1 %.not34.i, label %39, label %37

37:                                               ; preds = %._crit_edge44.i
  %38 = add nsw i32 %29, %.02138.i
  store i32 %38, ptr %28, align 4
  br label %39

39:                                               ; preds = %37, %._crit_edge44.i, %.thread.i
  %40 = getelementptr inbounds i8, ptr %24, i64 32
  %41 = load i32, ptr %40, align 8
  %.not35.i = icmp eq i32 %41, -1
  br i1 %.not35.i, label %44, label %42

42:                                               ; preds = %39
  %43 = add nsw i32 %41, %.02138.i
  store i32 %43, ptr %40, align 8
  br label %44

44:                                               ; preds = %42, %39
  %45 = getelementptr inbounds i8, ptr %24, i64 24
  %46 = load i32, ptr %45, align 8
  %47 = add nsw i32 %46, %.02138.i
  %48 = load i32, ptr @deviceCount_, align 4
  %49 = add nsw i32 %48, %46
  store i32 %49, ptr @deviceCount_, align 4
  %50 = add nsw i32 %21, 1
  store i32 %50, ptr @hostApisCount_, align 4
  br label %51

51:                                               ; preds = %44, %19
  %52 = phi i32 [ %50, %44 ], [ %21, %19 ]
  %.1.i = phi i32 [ %47, %44 ], [ %.02138.i, %19 ]
  %indvars.iv.next.i = add nuw nsw i64 %indvars.iv.i, 1
  %exitcond.not.i = icmp eq i64 %indvars.iv.next.i, %wide.trip.count.i
  br i1 %exitcond.not.i, label %._crit_edge.i, label %.lr.ph.i, !llvm.loop !6

._crit_edge.i:                                    ; preds = %51
  %.pre45.i = load i32, ptr @defaultHostApiIndex_, align 4
  %53 = icmp eq i32 %.pre45.i, -1
  br i1 %53, label %._crit_edge.thread.i, label %InitializeHostApis.exit.thread

._crit_edge.thread.i:                             ; preds = %._crit_edge.i, %11
  store i32 0, ptr @defaultHostApiIndex_, align 4
  br label %InitializeHostApis.exit.thread

.loopexit.i:                                      ; preds = %.lr.ph.i, %CountHostApiInitializers.exit.i
  %.022.i = phi i32 [ -9992, %CountHostApiInitializers.exit.i ], [ %18, %.lr.ph.i ]
  %54 = load i32, ptr @hostApisCount_, align 4
  %55 = icmp sgt i32 %54, 0
  br i1 %55, label %.lr.ph.i.i, label %._crit_edge.i.i

.lr.ph.i.i:                                       ; preds = %.loopexit.i, %.lr.ph.i.i
  %56 = phi i32 [ %64, %.lr.ph.i.i ], [ %54, %.loopexit.i ]
  %57 = add nsw i32 %56, -1
  store i32 %57, ptr @hostApisCount_, align 4
  %58 = load ptr, ptr @hostApis_, align 8
  %59 = zext nneg i32 %57 to i64
  %60 = getelementptr inbounds ptr, ptr %58, i64 %59
  %61 = load ptr, ptr %60, align 8
  %62 = getelementptr inbounds nuw i8, ptr %61, i64 48
  %63 = load ptr, ptr %62, align 8
  tail call void %63(ptr noundef %61) #12
  %64 = load i32, ptr @hostApisCount_, align 4
  %65 = icmp sgt i32 %64, 0
  br i1 %65, label %.lr.ph.i.i, label %._crit_edge.i.i, !llvm.loop !7

._crit_edge.i.i:                                  ; preds = %.lr.ph.i.i, %.loopexit.i
  store i32 0, ptr @hostApisCount_, align 4
  store i32 0, ptr @defaultHostApiIndex_, align 4
  store i32 0, ptr @deviceCount_, align 4
  %66 = load ptr, ptr @hostApis_, align 8
  %.not.i36.i = icmp eq ptr %66, null
  br i1 %.not.i36.i, label %InitializeHostApis.exit, label %67

67:                                               ; preds = %._crit_edge.i.i
  tail call void @PaUtil_FreeMemory(ptr noundef nonnull %66) #12
  br label %InitializeHostApis.exit

InitializeHostApis.exit:                          ; preds = %._crit_edge.i.i, %67
  store ptr null, ptr @hostApis_, align 8
  br label %70

InitializeHostApis.exit.thread:                   ; preds = %._crit_edge.i, %._crit_edge.thread.i
  %68 = load i32, ptr @initializationCount_, align 4
  %69 = add nsw i32 %68, 1
  store i32 %69, ptr @initializationCount_, align 4
  br label %70

70:                                               ; preds = %InitializeHostApis.exit, %InitializeHostApis.exit.thread
  %.0.i4 = phi i32 [ 0, %InitializeHostApis.exit.thread ], [ %.022.i, %InitializeHostApis.exit ]
  store i1 false, ptr @initializing_, align 4
  br label %71

71:                                               ; preds = %4, %70, %2
  %.0 = phi i32 [ 0, %2 ], [ %.0.i4, %70 ], [ -9971, %4 ]
  ret i32 %.0
}